target datalayout = "e-m:e-p270:32:32-p271:32:32-p272:64:64-i64:64-i128:128-f80:128-n8:16:32:64-S128"
target triple = "x86_64-unknown-linux-gnu"

%struct.VirtIOSCSICommon = type { %struct.VirtIODevice, %struct.VirtIOSCSIConf, i32, i32, ptr, ptr, ptr }
%struct.VirtIODevice = type { %struct.DeviceState, ptr, i8, i8, i16, i64, i64, i64, i64, ptr, i16, i32, i32, ptr, %struct.MemoryListener, i16, i8, i8, i8, i8, i8, i8, i8, i8, i8, ptr, ptr, i8, i8, ptr, ptr, %union.anon.1, %struct.EventNotifier, i8 }
%struct.DeviceState = type { %struct.Object, ptr, ptr, i8, i8, i64, ptr, i32, i8, ptr, %struct.NamedGPIOListHead, %struct.NamedClockListHead, %struct.BusStateHead, i32, i32, i32, %struct.ResettableState, ptr, %struct.MemReentrancyGuard }
%struct.Object = type { ptr, ptr, ptr, i32, ptr }
%struct.NamedGPIOListHead = type { ptr }
%struct.NamedClockListHead = type { ptr }
%struct.BusStateHead = type { ptr }
%struct.ResettableState = type { i32, i8, i8 }
%struct.MemReentrancyGuard = type { i8 }
%struct.MemoryListener = type { ptr, ptr, ptr, ptr, ptr, ptr, ptr, ptr, ptr, ptr, ptr, ptr, ptr, ptr, ptr, ptr, ptr, i32, ptr, ptr, %union.anon, %union.anon.0 }
%union.anon = type { %struct.QTailQLink }
%struct.QTailQLink = type { ptr, ptr }
%union.anon.0 = type { %struct.QTailQLink }
%union.anon.1 = type { %struct.QTailQLink }
%struct.EventNotifier = type { i32, i32, i8 }
%struct.VirtIOSCSIConf = type { i32, i32, i8, i32, i32, ptr, ptr, %struct.CharBackend, i32, ptr }
%struct.CharBackend = type { ptr, ptr, ptr, ptr, ptr, ptr, i32, i32 }
%struct.VirtIOSCSIReq = type <{ %struct.VirtQueueElement, ptr, ptr, %struct.QEMUSGList, %struct.QEMUIOVector, %union.anon.6, i32, [4 x i8], ptr, i64, i32, %union.anon.7, %union.anon.8, [4 x i8] }>
%struct.VirtQueueElement = type { i32, i32, i32, i32, i32, ptr, ptr, ptr, ptr }
%struct.QEMUSGList = type { ptr, i32, i32, i64, ptr, ptr }
%struct.QEMUIOVector = type { ptr, i32, %union.anon.4 }
%union.anon.4 = type { %struct.anon }
%struct.anon = type { i32, %struct.iovec }
%struct.iovec = type { ptr, i64 }
%union.anon.6 = type { %struct.QTailQLink }
%union.anon.7 = type { %struct.virtio_scsi_event }
%struct.virtio_scsi_event = type { i32, [8 x i8], i32 }
%union.anon.8 = type { %struct.virtio_scsi_ctrl_tmf_req }
%struct.virtio_scsi_ctrl_tmf_req = type { i32, i32, [8 x i8], i64 }
%struct.SCSIRequest = type { ptr, ptr, ptr, i32, i32, i32, i16, i16, ptr, i64, %struct.SCSICommand, %struct.NotifierList, [252 x i8], i32, i8, i8, i8, i8, ptr, ptr, %union.anon.11 }
%struct.SCSICommand = type { [16 x i8], i32, i64, i64, i32 }
%struct.NotifierList = type { %struct.anon.10 }
%struct.anon.10 = type { ptr }
%union.anon.11 = type { %struct.QTailQLink }

@.str = private unnamed_addr constant [30 x i8] c"../qemu/hw/scsi/virtio-scsi.c\00", align 1
@.str.3 = private unnamed_addr constant [14 x i8] c"virtio-device\00", align 1
@.str.4 = private unnamed_addr constant [105 x i8] c"/home/dtcxzyw/WorkSpace/Projects/compilers/llvm-opt-benchmark/bench/qemu/qemu/include/hw/virtio/virtio.h\00", align 1
@__func__.VIRTIO_DEVICE = private unnamed_addr constant [14 x i8] c"VIRTIO_DEVICE\00", align 1
@.str.5 = private unnamed_addr constant [19 x i8] c"virtio-scsi-common\00", align 1
@.str.6 = private unnamed_addr constant [110 x i8] c"/home/dtcxzyw/WorkSpace/Projects/compilers/llvm-opt-benchmark/bench/qemu/qemu/include/hw/virtio/virtio-scsi.h\00", align 1
@__func__.VIRTIO_SCSI_COMMON = private unnamed_addr constant [19 x i8] c"VIRTIO_SCSI_COMMON\00", align 1
@.str.49 = private unnamed_addr constant [24 x i8] c"n < vs->conf.num_queues\00", align 1
@__PRETTY_FUNCTION__.virtio_scsi_save_request = private unnamed_addr constant [57 x i8] c"void virtio_scsi_save_request(QEMUFile *, SCSIRequest *)\00", align 1

; Function Attrs: nounwind sspstrong uwtable
define internal void @qemu_put_be32s(ptr noundef %f, ptr noundef %pv) #0 {
entry:
  %f.addr = alloca ptr, align 8
  %pv.addr = alloca ptr, align 8
  store ptr %f, ptr %f.addr, align 8
  store ptr %pv, ptr %pv.addr, align 8
  %0 = load ptr, ptr %f.addr, align 8
  %1 = load ptr, ptr %pv.addr, align 8
  %2 = load i32, ptr %1, align 4
  call void @qemu_put_be32(ptr noundef %0, i32 noundef %2)
  ret void
}

; Function Attrs: nounwind sspstrong uwtable
define internal ptr @VIRTIO_DEVICE(ptr noundef %obj) #0 {
entry:
  %obj.addr = alloca ptr, align 8
  store ptr %obj, ptr %obj.addr, align 8
  %0 = load ptr, ptr %obj.addr, align 8
  %call = call ptr @object_dynamic_cast_assert(ptr noundef %0, ptr noundef @.str.3, ptr noundef @.str.4, i32 noundef 85, ptr noundef @__func__.VIRTIO_DEVICE)
  ret ptr %call
}

; Function Attrs: nounwind sspstrong uwtable
define internal ptr @VIRTIO_SCSI_COMMON(ptr noundef %obj) #0 {
entry:
  %obj.addr = alloca ptr, align 8
  store ptr %obj, ptr %obj.addr, align 8
  %0 = load ptr, ptr %obj.addr, align 8
  %call = call ptr @object_dynamic_cast_assert(ptr noundef %0, ptr noundef @.str.5, ptr noundef @.str.6, i32 noundef 28, ptr noundef @__func__.VIRTIO_SCSI_COMMON)
  ret ptr %call
}

; Function Attrs: nounwind sspstrong uwtable
define internal void @virtio_scsi_save_request(ptr noundef %f, ptr noundef %sreq) #0 {
entry:
  %f.addr = alloca ptr, align 8
  %sreq.addr = alloca ptr, align 8
  %req = alloca ptr, align 8
  %vs = alloca ptr, align 8
  %vdev = alloca ptr, align 8
  %n = alloca i32, align 4
  store ptr %f, ptr %f.addr, align 8
  store ptr %sreq, ptr %sreq.addr, align 8
  %0 = load ptr, ptr %sreq.addr, align 8
  %hba_private = getelementptr inbounds %struct.SCSIRequest, ptr %0, i32 0, i32 8
  %1 = load ptr, ptr %hba_private, align 8
  store ptr %1, ptr %req, align 8
  %2 = load ptr, ptr %req, align 8
  %dev = getelementptr inbounds %struct.VirtIOSCSIReq, ptr %2, i32 0, i32 1
  %3 = load ptr, ptr %dev, align 8
  %call = call ptr @VIRTIO_SCSI_COMMON(ptr noundef %3)
  store ptr %call, ptr %vs, align 8
  %4 = load ptr, ptr %req, align 8
  %dev1 = getelementptr inbounds %struct.VirtIOSCSIReq, ptr %4, i32 0, i32 1
  %5 = load ptr, ptr %dev1, align 8
  %call2 = call ptr @VIRTIO_DEVICE(ptr noundef %5)
  store ptr %call2, ptr %vdev, align 8
  %6 = load ptr, ptr %req, align 8
  %vq = getelementptr inbounds %struct.VirtIOSCSIReq, ptr %6, i32 0, i32 2
  %7 = load ptr, ptr %vq, align 8
  %call3 = call zeroext i16 @virtio_get_queue_index(ptr noundef %7)
  %conv = zext i16 %call3 to i32
  %sub = sub i32 %conv, 2
  store i32 %sub, ptr %n, align 4
  %8 = load i32, ptr %n, align 4
  %9 = load ptr, ptr %vs, align 8
  %conf = getelementptr inbounds %struct.VirtIOSCSICommon, ptr %9, i32 0, i32 1
  %num_queues = getelementptr inbounds %struct.VirtIOSCSIConf, ptr %conf, i32 0, i32 0
  %10 = load i32, ptr %num_queues, align 8
  %cmp = icmp ult i32 %8, %10
  br i1 %cmp, label %if.then, label %if.else

if.then:                                          ; preds = %entry
  br label %if.end

if.else:                                          ; preds = %entry
  call void @__assert_fail(ptr noundef @.str.49, ptr noundef @.str, i32 noundef 234, ptr noundef @__PRETTY_FUNCTION__.virtio_scsi_save_request) #11
  unreachable

if.end:                                           ; preds = %if.then
  %11 = load ptr, ptr %f.addr, align 8
  call void @qemu_put_be32s(ptr noundef %11, ptr noundef %n)
  %12 = load ptr, ptr %vdev, align 8
  %13 = load ptr, ptr %f.addr, align 8
  %14 = load ptr, ptr %req, align 8
  %elem = getelementptr inbounds %struct.VirtIOSCSIReq, ptr %14, i32 0, i32 0
  call void @qemu_put_virtqueue_element(ptr noundef %12, ptr noundef %13, ptr noundef %elem)
  ret void
}