; Function Attrs: nounwind sspstrong uwtable
define internal void @virtio_scsi_save_request(ptr noundef %f, ptr noundef readonly captures(none) %sreq) #0 {
entry:
  %hba_private = getelementptr inbounds nuw i8, ptr %sreq, i64 40
  %0 = load ptr, ptr %hba_private, align 8
  %dev = getelementptr inbounds nuw i8, ptr %0, i64 56
  %1 = load ptr, ptr %dev, align 8
  %call.i = tail call ptr @object_dynamic_cast_assert(ptr noundef %1, ptr noundef nonnull @.str.5, ptr noundef nonnull @.str.6, i32 noundef 28, ptr noundef nonnull @__func__.VIRTIO_SCSI_COMMON) #13
  %2 = load ptr, ptr %dev, align 8
  %call.i5 = tail call ptr @object_dynamic_cast_assert(ptr noundef %2, ptr noundef nonnull @.str.3, ptr noundef nonnull @.str.4, i32 noundef 85, ptr noundef nonnull @__func__.VIRTIO_DEVICE) #13
  %vq = getelementptr inbounds nuw i8, ptr %0, i64 64
  %3 = load ptr, ptr %vq, align 8
  %call3 = tail call zeroext i16 @virtio_get_queue_index(ptr noundef %3) #13
  %conv = zext i16 %call3 to i32
  %sub = add nsw i32 %conv, -2
  %conf = getelementptr inbounds nuw i8, ptr %call.i, i64 520
  %4 = load i32, ptr %conf, align 8
  %cmp = icmp ult i32 %sub, %4
  br i1 %cmp, label %if.end, label %if.else

if.else:                                          ; preds = %entry
  tail call void @__assert_fail(ptr noundef nonnull @.str.49, ptr noundef nonnull @.str, i32 noundef 234, ptr noundef nonnull @__PRETTY_FUNCTION__.virtio_scsi_save_request) #15
  unreachable

if.end:                                           ; preds = %entry
  tail call void @qemu_put_be32(ptr noundef %f, i32 noundef %sub) #13
  tail call void @qemu_put_virtqueue_element(ptr noundef %call.i5, ptr noundef %f, ptr noundef nonnull %0) #13
  ret void
}